target datalayout = "e-m:e-p270:32:32-p271:32:32-p272:64:64-i64:64-i128:128-f80:128-n8:16:32:64-S128"
target triple = "x86_64-unknown-linux-gnu"

@opt_oversize_threshold = hidden global i64 8388608, align 8
@oversize_threshold = hidden global i64 8388608, align 8
@huge_arena_ind = internal global i32 0, align 4

; Function Attrs: nounwind uwtable
define hidden zeroext i1 @arena_init_huge() #0 {
entry:
  %huge_enabled = alloca i8, align 1
  %0 = load i64, ptr @opt_oversize_threshold, align 8
  %cmp = icmp ugt i64 %0, 8070450532247928832
  br i1 %cmp, label %if.then, label %lor.lhs.false

lor.lhs.false:                                    ; preds = %entry
  %1 = load i64, ptr @opt_oversize_threshold, align 8
  %cmp1 = icmp ult i64 %1, 16384
  br i1 %cmp1, label %if.then, label %if.else

if.then:                                          ; preds = %lor.lhs.false, %entry
  store i64 0, ptr @opt_oversize_threshold, align 8
  store i64 8070450532247932928, ptr @oversize_threshold, align 8
  store i8 0, ptr %huge_enabled, align 1
  br label %if.end

if.else:                                          ; preds = %lor.lhs.false
  %call = call i32 @narenas_total_get()
  store i32 %call, ptr @huge_arena_ind, align 4
  %2 = load i64, ptr @opt_oversize_threshold, align 8
  store i64 %2, ptr @oversize_threshold, align 8
  store i8 1, ptr %huge_enabled, align 1
  br label %if.end

if.end:                                           ; preds = %if.else, %if.then
  %3 = load i8, ptr %huge_enabled, align 1
  %tobool = trunc i8 %3 to i1
  ret i1 %tobool
}