; Function Attrs: nounwind uwtable
define hidden noundef zeroext i1 @arena_init_huge() local_unnamed_addr #0 {
entry:
  %0 = load i64, ptr @opt_oversize_threshold, align 8
  %1 = add i64 %0, -16384
  %or.cond = icmp ult i64 %1, 8070450532247912449
  br i1 %or.cond, label %if.else, label %if.then

if.then:                                          ; preds = %entry
  store i64 0, ptr @opt_oversize_threshold, align 8
  br label %if.end

if.else:                                          ; preds = %entry
  %call = tail call i32 @narenas_total_get() #15
  store i32 %call, ptr @huge_arena_ind, align 4
  %2 = load i64, ptr @opt_oversize_threshold, align 8
  br label %if.end

if.end:                                           ; preds = %if.else, %if.then
  %storemerge = phi i64 [ %2, %if.else ], [ 8070450532247932928, %if.then ]
  store i64 %storemerge, ptr @oversize_threshold, align 8
  ret i1 %or.cond
}